target datalayout = "e-m:e-p270:32:32-p271:32:32-p272:64:64-i64:64-i128:128-f80:128-n8:16:32:64-S128"
target triple = "x86_64-pc-linux-gnu"

; Function Attrs: mustprogress uwtable
define void @_ZN32pxrInternal_v0_24__pxrReserved__21HdDirtyBitsTranslator30InstancerDirtyBitsToLocatorSetERKNS_7TfTokenEjPNS_22HdDataSourceLocatorSetE(ptr noundef nonnull align 8 dereferenceable(8) %0, i32 noundef %1, ptr noundef %2) #0 align 2 {
  %4 = alloca ptr, align 8
  %5 = alloca i32, align 4
  %6 = alloca ptr, align 8
  store ptr %0, ptr %4, align 8
  store i32 %1, ptr %5, align 4
  store ptr %2, ptr %6, align 8
  %7 = load ptr, ptr %6, align 8
  %8 = icmp eq ptr %7, null
  br i1 %8, label %9, label %10

9:                                                ; preds = %3
  br label %44

10:                                               ; preds = %3
  %11 = load i32, ptr %5, align 4
  %12 = icmp eq i32 %11, -3
  br i1 %12, label %13, label %16

13:                                               ; preds = %10
  %14 = load ptr, ptr %6, align 8
  %15 = call noundef nonnull align 8 dereferenceable(56) ptr @_ZN32pxrInternal_v0_24__pxrReserved__19HdDataSourceLocator12EmptyLocatorEv()
  call void @_ZN32pxrInternal_v0_24__pxrReserved__22HdDataSourceLocatorSet6appendERKNS_19HdDataSourceLocatorE(ptr noundef nonnull align 8 dereferenceable(456) %14, ptr noundef nonnull align 8 dereferenceable(56) %15)
  br label %44

16:                                               ; preds = %10
  %17 = load i32, ptr %5, align 4
  %18 = and i32 %17, 65536
  %19 = icmp ne i32 %18, 0
  br i1 %19, label %20, label %23

20:                                               ; preds = %16
  %21 = load ptr, ptr %6, align 8
  %22 = call noundef nonnull align 8 dereferenceable(56) ptr @_ZN32pxrInternal_v0_24__pxrReserved__19HdInstancedBySchema17GetDefaultLocatorEv()
  call void @_ZN32pxrInternal_v0_24__pxrReserved__22HdDataSourceLocatorSet6appendERKNS_19HdDataSourceLocatorE(ptr noundef nonnull align 8 dereferenceable(456) %21, ptr noundef nonnull align 8 dereferenceable(56) %22)
  br label %23

23:                                               ; preds = %20, %16
  %24 = load i32, ptr %5, align 4
  %25 = and i32 %24, 131072
  %26 = icmp ne i32 %25, 0
  br i1 %26, label %27, label %30

27:                                               ; preds = %23
  %28 = load ptr, ptr %6, align 8
  %29 = call noundef nonnull align 8 dereferenceable(56) ptr @_ZN32pxrInternal_v0_24__pxrReserved__25HdInstancerTopologySchema17GetDefaultLocatorEv()
  call void @_ZN32pxrInternal_v0_24__pxrReserved__22HdDataSourceLocatorSet6appendERKNS_19HdDataSourceLocatorE(ptr noundef nonnull align 8 dereferenceable(456) %28, ptr noundef nonnull align 8 dereferenceable(56) %29)
  br label %30

30:                                               ; preds = %27, %23
  %31 = load i32, ptr %5, align 4
  %32 = and i32 %31, 64
  %33 = icmp ne i32 %32, 0
  br i1 %33, label %34, label %37

34:                                               ; preds = %30
  %35 = load ptr, ptr %6, align 8
  %36 = call noundef nonnull align 8 dereferenceable(56) ptr @_ZN32pxrInternal_v0_24__pxrReserved__16HdPrimvarsSchema17GetDefaultLocatorEv()
  call void @_ZN32pxrInternal_v0_24__pxrReserved__22HdDataSourceLocatorSet6appendERKNS_19HdDataSourceLocatorE(ptr noundef nonnull align 8 dereferenceable(456) %35, ptr noundef nonnull align 8 dereferenceable(56) %36)
  br label %37

37:                                               ; preds = %34, %30
  %38 = load i32, ptr %5, align 4
  %39 = and i32 %38, 512
  %40 = icmp ne i32 %39, 0
  br i1 %40, label %41, label %44

41:                                               ; preds = %37
  %42 = load ptr, ptr %6, align 8
  %43 = call noundef nonnull align 8 dereferenceable(56) ptr @_ZN32pxrInternal_v0_24__pxrReserved__13HdXformSchema17GetDefaultLocatorEv()
  call void @_ZN32pxrInternal_v0_24__pxrReserved__22HdDataSourceLocatorSet6appendERKNS_19HdDataSourceLocatorE(ptr noundef nonnull align 8 dereferenceable(456) %42, ptr noundef nonnull align 8 dereferenceable(56) %43)
  br label %44

44:                                               ; preds = %41, %37, %13, %9
  ret void
}