; Function Attrs: mustprogress uwtable
define void @_ZN32pxrInternal_v0_24__pxrReserved__21HdDirtyBitsTranslator30InstancerDirtyBitsToLocatorSetERKNS_7TfTokenEjPNS_22HdDataSourceLocatorSetE(ptr noundef nonnull readnone align 8 captures(none) dereferenceable(8) %0, i32 noundef %1, ptr noundef %2) local_unnamed_addr #0 align 2 {
  %4 = icmp eq ptr %2, null
  br i1 %4, label %25, label %5

5:                                                ; preds = %3
  %6 = icmp eq i32 %1, -3
  br i1 %6, label %7, label %9

7:                                                ; preds = %5
  %8 = tail call noundef nonnull align 8 dereferenceable(56) ptr @_ZN32pxrInternal_v0_24__pxrReserved__19HdDataSourceLocator12EmptyLocatorEv()
  br label %.sink.split

9:                                                ; preds = %5
  %10 = and i32 %1, 65536
  %.not = icmp eq i32 %10, 0
  br i1 %.not, label %13, label %11

11:                                               ; preds = %9
  %12 = tail call noundef nonnull align 8 dereferenceable(56) ptr @_ZN32pxrInternal_v0_24__pxrReserved__19HdInstancedBySchema17GetDefaultLocatorEv()
  tail call void @_ZN32pxrInternal_v0_24__pxrReserved__22HdDataSourceLocatorSet6appendERKNS_19HdDataSourceLocatorE(ptr noundef nonnull align 8 dereferenceable(456) %2, ptr noundef nonnull align 8 dereferenceable(56) %12)
  br label %13

13:                                               ; preds = %11, %9
  %14 = and i32 %1, 131072
  %.not11 = icmp eq i32 %14, 0
  br i1 %.not11, label %17, label %15

15:                                               ; preds = %13
  %16 = tail call noundef nonnull align 8 dereferenceable(56) ptr @_ZN32pxrInternal_v0_24__pxrReserved__25HdInstancerTopologySchema17GetDefaultLocatorEv()
  tail call void @_ZN32pxrInternal_v0_24__pxrReserved__22HdDataSourceLocatorSet6appendERKNS_19HdDataSourceLocatorE(ptr noundef nonnull align 8 dereferenceable(456) %2, ptr noundef nonnull align 8 dereferenceable(56) %16)
  br label %17

17:                                               ; preds = %15, %13
  %18 = and i32 %1, 64
  %.not12 = icmp eq i32 %18, 0
  br i1 %.not12, label %21, label %19

19:                                               ; preds = %17
  %20 = tail call noundef nonnull align 8 dereferenceable(56) ptr @_ZN32pxrInternal_v0_24__pxrReserved__16HdPrimvarsSchema17GetDefaultLocatorEv()
  tail call void @_ZN32pxrInternal_v0_24__pxrReserved__22HdDataSourceLocatorSet6appendERKNS_19HdDataSourceLocatorE(ptr noundef nonnull align 8 dereferenceable(456) %2, ptr noundef nonnull align 8 dereferenceable(56) %20)
  br label %21

21:                                               ; preds = %19, %17
  %22 = and i32 %1, 512
  %.not13 = icmp eq i32 %22, 0
  br i1 %.not13, label %25, label %23

23:                                               ; preds = %21
  %24 = tail call noundef nonnull align 8 dereferenceable(56) ptr @_ZN32pxrInternal_v0_24__pxrReserved__13HdXformSchema17GetDefaultLocatorEv()
  br label %.sink.split

.sink.split:                                      ; preds = %7, %23
  %.sink = phi ptr [ %24, %23 ], [ %8, %7 ]
  tail call void @_ZN32pxrInternal_v0_24__pxrReserved__22HdDataSourceLocatorSet6appendERKNS_19HdDataSourceLocatorE(ptr noundef nonnull align 8 dereferenceable(456) %2, ptr noundef nonnull align 8 dereferenceable(56) %.sink)
  br label %25

25:                                               ; preds = %.sink.split, %3, %21
  ret void
}